; ModuleID = '37/62.c'
source_filename = "37/62.c"
target datalayout = "e-m:e-p270:32:32-p271:32:32-p272:64:64-i64:64-f80:128-n8:16:32:64-S128"
target triple = "x86_64-pc-linux-gnu"

@.str = private unnamed_addr constant [4 x i8] c"%d\0A\00", align 1
@.str.1 = private unnamed_addr constant [4 x i8] c"no\0A\00", align 1
@.str.2 = private unnamed_addr constant [4 x i8] c"%c\0A\00", align 1

; Function Attrs: noinline nounwind uwtable
define dso_local void @main() #0 {
  %1 = alloca i32, align 4
  %2 = alloca i32, align 4
  %3 = alloca [100000 x i32], align 16
  %4 = call i32 (i8*, ...) @__isoc99_scanf(i8* getelementptr inbounds ([4 x i8], [4 x i8]* @.str, i64 0, i64 0), i32* %1)
  store i32 0, i32* %2, align 4
  br label %5

5:                                                ; preds = %26, %0
  %6 = load i32, i32* %2, align 4
  %7 = load i32, i32* %1, align 4
  %8 = icmp slt i32 %6, %7
  br i1 %8, label %9, label %29

9:                                                ; preds = %5
  %10 = getelementptr inbounds [100000 x i32], [100000 x i32]* %3, i64 0, i64 0
  %11 = call i32 (i32*, ...) bitcast (i32 (...)* @gets to i32 (i32*, ...)*)(i32* %10)
  %12 = getelementptr inbounds [100000 x i32], [100000 x i32]* %3, i64 0, i64 0
  %13 = bitcast i32* %12 to i8*
  %14 = call signext i8 @s(i8* %13)
  %15 = sext i8 %14 to i32
  %16 = icmp eq i32 %15, 78
  br i1 %16, label %17, label %19

17:                                               ; preds = %9
  %18 = call i32 (i8*, ...) @printf(i8* getelementptr inbounds ([4 x i8], [4 x i8]* @.str.1, i64 0, i64 0))
  br label %25

19:                                               ; preds = %9
  %20 = getelementptr inbounds [100000 x i32], [100000 x i32]* %3, i64 0, i64 0
  %21 = bitcast i32* %20 to i8*
  %22 = call signext i8 @s(i8* %21)
  %23 = sext i8 %22 to i32
  %24 = call i32 (i8*, ...) @printf(i8* getelementptr inbounds ([4 x i8], [4 x i8]* @.str.2, i64 0, i64 0), i32 %23)
  br label %25

25:                                               ; preds = %19, %17
  br label %26

26:                                               ; preds = %25
  %27 = load i32, i32* %2, align 4
  %28 = add nsw i32 %27, 1
  store i32 %28, i32* %2, align 4
  br label %5

29:                                               ; preds = %5
  ret void
}

declare dso_local i32 @__isoc99_scanf(i8*, ...) #1

declare dso_local i32 @gets(...) #1

; Function Attrs: noinline nounwind uwtable
define dso_local signext i8 @s(i8* %0) #0 {
  %2 = alloca i8, align 1
  %3 = alloca i8*, align 8
  %4 = alloca i32, align 4
  %5 = alloca i32, align 4
  store i8* %0, i8** %3, align 8
  store i32 0, i32* %4, align 4
  br label %6

6:                                                ; preds = %59, %1
  %7 = load i8*, i8** %3, align 8
  %8 = load i32, i32* %4, align 4
  %9 = sext i32 %8 to i64
  %10 = getelementptr inbounds i8, i8* %7, i64 %9
  %11 = load i8, i8* %10, align 1
  %12 = sext i8 %11 to i32
  %13 = icmp ne i32 %12, 0
  br i1 %13, label %14, label %62

14:                                               ; preds = %6
  store i32 0, i32* %5, align 4
  br label %15

15:                                               ; preds = %42, %14
  %16 = load i8*, i8** %3, align 8
  %17 = load i32, i32* %5, align 4
  %18 = sext i32 %17 to i64
  %19 = getelementptr inbounds i8, i8* %16, i64 %18
  %20 = load i8, i8* %19, align 1
  %21 = sext i8 %20 to i32
  %22 = icmp ne i32 %21, 0
  br i1 %22, label %23, label %45

23:                                               ; preds = %15
  %24 = load i32, i32* %4, align 4
  %25 = load i32, i32* %5, align 4
  %26 = icmp ne i32 %24, %25
  br i1 %26, label %27, label %42

27:                                               ; preds = %23
  %28 = load i8*, i8** %3, align 8
  %29 = load i32, i32* %4, align 4
  %30 = sext i32 %29 to i64
  %31 = getelementptr inbounds i8, i8* %28, i64 %30
  %32 = load i8, i8* %31, align 1
  %33 = sext i8 %32 to i32
  %34 = load i8*, i8** %3, align 8
  %35 = load i32, i32* %5, align 4
  %36 = sext i32 %35 to i64
  %37 = getelementptr inbounds i8, i8* %34, i64 %36
  %38 = load i8, i8* %37, align 1
  %39 = sext i8 %38 to i32
  %40 = icmp eq i32 %33, %39
  br i1 %40, label %41, label %42

41:                                               ; preds = %27
  br label %45

42:                                               ; preds = %27, %23
  %43 = load i32, i32* %5, align 4
  %44 = add nsw i32 %43, 1
  store i32 %44, i32* %5, align 4
  br label %15

45:                                               ; preds = %41, %15
  %46 = load i8*, i8** %3, align 8
  %47 = load i32, i32* %5, align 4
  %48 = sext i32 %47 to i64
  %49 = getelementptr inbounds i8, i8* %46, i64 %48
  %50 = load i8, i8* %49, align 1
  %51 = sext i8 %50 to i32
  %52 = icmp eq i32 %51, 0
  br i1 %52, label %53, label %59

53:                                               ; preds = %45
  %54 = load i8*, i8** %3, align 8
  %55 = load i32, i32* %4, align 4
  %56 = sext i32 %55 to i64
  %57 = getelementptr inbounds i8, i8* %54, i64 %56
  %58 = load i8, i8* %57, align 1
  store i8 %58, i8* %2, align 1
  br label %71

59:                                               ; preds = %45
  %60 = load i32, i32* %4, align 4
  %61 = add nsw i32 %60, 1
  store i32 %61, i32* %4, align 4
  br label %6

62:                                               ; preds = %6
  %63 = load i8*, i8** %3, align 8
  %64 = load i32, i32* %4, align 4
  %65 = sext i32 %64 to i64
  %66 = getelementptr inbounds i8, i8* %63, i64 %65
  %67 = load i8, i8* %66, align 1
  %68 = sext i8 %67 to i32
  %69 = icmp eq i32 %68, 0
  br i1 %69, label %70, label %71

70:                                               ; preds = %62
  store i8 78, i8* %2, align 1
  br label %71

71:                                               ; preds = %53, %70, %62
  %72 = load i8, i8* %2, align 1
  ret i8 %72
}

declare dso_local i32 @printf(i8*, ...) #1


!llvm.module.flags = !{!0}
!llvm.ident = !{!1}

!0 = !{i32 1, !"wchar_size", i32 4}
!1 = !{!"clang version 10.0.0-4ubuntu1 "}
